target datalayout = "e-m:e-p270:32:32-p271:32:32-p272:64:64-i64:64-i128:128-f80:128-n8:16:32:64-S128"
target triple = "x86_64-pc-linux-gnu"

%"struct.nanobind::dlpack::dtype" = type { i8, i8, i16 }
%"struct.nanobind::detail::managed_dltensor" = type { %"struct.nanobind::dlpack::dltensor", ptr, ptr }
%"struct.nanobind::dlpack::dltensor" = type { ptr, %"struct.nanobind::dlpack::device", i32, %"struct.nanobind::dlpack::dtype", ptr, ptr, i64 }
%"struct.nanobind::dlpack::device" = type { i32, i32 }
%class.anon.4 = type { i8 }
%"struct.nanobind::gil_scoped_acquire" = type { i32 }

; Function Attrs: mustprogress nounwind uwtable
define linkonce_odr hidden void @_ZN8nanobind18gil_scoped_acquireD2Ev(ptr noundef nonnull align 4 dereferenceable(4) %0) unnamed_addr #0 comdat align 2 personality ptr @__gxx_personality_v0 {
  %2 = alloca ptr, align 8
  store ptr %0, ptr %2, align 8
  %3 = load ptr, ptr %2, align 8
  %4 = getelementptr inbounds nuw %"struct.nanobind::gil_scoped_acquire", ptr %3, i32 0, i32 0
  %5 = load i32, ptr %4, align 4
  invoke void @PyGILState_Release(i32 noundef %5)
          to label %6 unwind label %7

6:                                                ; preds = %1
  ret void

7:                                                ; preds = %1
  %8 = landingpad { ptr, i32 }
          catch ptr null
  %9 = extractvalue { ptr, i32 } %8, 0
  call void @__clang_call_terminate(ptr %9) #18
  unreachable
}

; Function Attrs: mustprogress nounwind uwtable
define linkonce_odr hidden void @_ZN8nanobind18gil_scoped_acquireC2Ev(ptr noundef nonnull align 4 dereferenceable(4) %0) unnamed_addr #0 comdat align 2 personality ptr @__gxx_personality_v0 {
  %2 = alloca ptr, align 8
  store ptr %0, ptr %2, align 8
  %3 = load ptr, ptr %2, align 8
  %4 = getelementptr inbounds nuw %"struct.nanobind::gil_scoped_acquire", ptr %3, i32 0, i32 0
  %5 = invoke i32 @PyGILState_Ensure()
          to label %6 unwind label %7

6:                                                ; preds = %1
  store i32 %5, ptr %4, align 4
  ret void

7:                                                ; preds = %1
  %8 = landingpad { ptr, i32 }
          catch ptr null
  %9 = extractvalue { ptr, i32 } %8, 0
  call void @__clang_call_terminate(ptr %9) #18
  unreachable
}

; Function Attrs: inlinehint mustprogress uwtable
define internal void @"_ZZN8nanobind6detailL27dlpack_from_buffer_protocolEP7_objectbENK3$_0clEPNS0_16managed_dltensorE"(ptr noundef nonnull align 1 dereferenceable(1) %0, ptr noundef %1) #8 align 2 personality ptr @__gxx_personality_v0 {
  %3 = alloca ptr, align 8
  %4 = alloca ptr, align 8
  %5 = alloca %"struct.nanobind::gil_scoped_acquire", align 4
  %6 = alloca ptr, align 8
  %7 = alloca ptr, align 8
  %8 = alloca i32, align 4
  store ptr %0, ptr %3, align 8
  store ptr %1, ptr %4, align 8
  call void @llvm.lifetime.start.p0(i64 4, ptr %5) #17
  call void @_ZN8nanobind18gil_scoped_acquireC2Ev(ptr noundef nonnull align 4 dereferenceable(4) %5) #17
  call void @llvm.lifetime.start.p0(i64 8, ptr %6) #17
  %9 = load ptr, ptr %4, align 8
  %10 = getelementptr inbounds nuw %"struct.nanobind::detail::managed_dltensor", ptr %9, i32 0, i32 1
  %11 = load ptr, ptr %10, align 8
  store ptr %11, ptr %6, align 8
  %12 = load ptr, ptr %6, align 8
  invoke void @PyBuffer_Release(ptr noundef %12)
          to label %13 unwind label %30

13:                                               ; preds = %2
  %14 = load ptr, ptr %4, align 8
  %15 = getelementptr inbounds nuw %"struct.nanobind::detail::managed_dltensor", ptr %14, i32 0, i32 1
  %16 = load ptr, ptr %15, align 8
  invoke void @PyMem_Free(ptr noundef %16)
          to label %17 unwind label %30

17:                                               ; preds = %13
  %18 = load ptr, ptr %4, align 8
  %19 = getelementptr inbounds nuw %"struct.nanobind::detail::managed_dltensor", ptr %18, i32 0, i32 0
  %20 = getelementptr inbounds nuw %"struct.nanobind::dlpack::dltensor", ptr %19, i32 0, i32 4
  %21 = load ptr, ptr %20, align 8
  invoke void @PyMem_Free(ptr noundef %21)
          to label %22 unwind label %30

22:                                               ; preds = %17
  %23 = load ptr, ptr %4, align 8
  %24 = getelementptr inbounds nuw %"struct.nanobind::detail::managed_dltensor", ptr %23, i32 0, i32 0
  %25 = getelementptr inbounds nuw %"struct.nanobind::dlpack::dltensor", ptr %24, i32 0, i32 5
  %26 = load ptr, ptr %25, align 8
  invoke void @PyMem_Free(ptr noundef %26)
          to label %27 unwind label %30

27:                                               ; preds = %22
  %28 = load ptr, ptr %4, align 8
  invoke void @PyMem_Free(ptr noundef %28)
          to label %29 unwind label %30

29:                                               ; preds = %27
  call void @llvm.lifetime.end.p0(i64 8, ptr %6) #17
  call void @_ZN8nanobind18gil_scoped_acquireD2Ev(ptr noundef nonnull align 4 dereferenceable(4) %5) #17
  call void @llvm.lifetime.end.p0(i64 4, ptr %5) #17
  ret void

30:                                               ; preds = %27, %22, %17, %13, %2
  %31 = landingpad { ptr, i32 }
          cleanup
  %32 = extractvalue { ptr, i32 } %31, 0
  store ptr %32, ptr %7, align 8
  %33 = extractvalue { ptr, i32 } %31, 1
  store i32 %33, ptr %8, align 4
  call void @llvm.lifetime.end.p0(i64 8, ptr %6) #17
  call void @_ZN8nanobind18gil_scoped_acquireD2Ev(ptr noundef nonnull align 4 dereferenceable(4) %5) #17
  call void @llvm.lifetime.end.p0(i64 4, ptr %5) #17
  br label %34

34:                                               ; preds = %30
  %35 = load ptr, ptr %7, align 8
  %36 = load i32, ptr %8, align 4
  %37 = insertvalue { ptr, i32 } poison, ptr %35, 0
  %38 = insertvalue { ptr, i32 } %37, i32 %36, 1
  resume { ptr, i32 } %38
}

; Function Attrs: inlinehint mustprogress uwtable
define internal void @"_ZZN8nanobind6detailL27dlpack_from_buffer_protocolEP7_objectbEN3$_08__invokeEPNS0_16managed_dltensorE"(ptr noundef %0) #8 align 2 {
  %2 = alloca ptr, align 8
  %3 = alloca %class.anon.4, align 1
  store ptr %0, ptr %2, align 8
  %4 = load ptr, ptr %2, align 8
  call void @"_ZZN8nanobind6detailL27dlpack_from_buffer_protocolEP7_objectbENK3$_0clEPNS0_16managed_dltensorE"(ptr noundef nonnull align 1 dereferenceable(1) %3, ptr noundef %4)
  ret void
}