; Function Attrs: inlinehint mustprogress uwtable
define internal void @"_ZZN8nanobind6detailL27dlpack_from_buffer_protocolEP7_objectbEN3$_08__invokeEPNS0_16managed_dltensorE"(ptr noundef %0) #15 align 2 personality ptr @__gxx_personality_v0 {
  %2 = invoke i32 @PyGILState_Ensure()
          to label %_ZN8nanobind18gil_scoped_acquireC2Ev.exit.i unwind label %3

3:                                                ; preds = %1
  %4 = landingpad { ptr, i32 }
          catch ptr null
  %5 = extractvalue { ptr, i32 } %4, 0
  tail call void @__clang_call_terminate(ptr %5) #20
  unreachable

_ZN8nanobind18gil_scoped_acquireC2Ev.exit.i:      ; preds = %1
  %6 = getelementptr inbounds nuw i8, ptr %0, i64 48
  %7 = load ptr, ptr %6, align 8
  invoke void @PyBuffer_Release(ptr noundef %7)
          to label %8 unwind label %21

8:                                                ; preds = %_ZN8nanobind18gil_scoped_acquireC2Ev.exit.i
  %9 = load ptr, ptr %6, align 8
  invoke void @PyMem_Free(ptr noundef %9)
          to label %10 unwind label %21

10:                                               ; preds = %8
  %11 = getelementptr inbounds nuw i8, ptr %0, i64 24
  %12 = load ptr, ptr %11, align 8
  invoke void @PyMem_Free(ptr noundef %12)
          to label %13 unwind label %21

13:                                               ; preds = %10
  %14 = getelementptr inbounds nuw i8, ptr %0, i64 32
  %15 = load ptr, ptr %14, align 8
  invoke void @PyMem_Free(ptr noundef %15)
          to label %16 unwind label %21

16:                                               ; preds = %13
  invoke void @PyMem_Free(ptr noundef nonnull %0)
          to label %17 unwind label %21

17:                                               ; preds = %16
  invoke void @PyGILState_Release(i32 noundef %2)
          to label %"_ZZN8nanobind6detailL27dlpack_from_buffer_protocolEP7_objectbENK3$_0clEPNS0_16managed_dltensorE.exit" unwind label %18

18:                                               ; preds = %17
  %19 = landingpad { ptr, i32 }
          catch ptr null
  %20 = extractvalue { ptr, i32 } %19, 0
  tail call void @__clang_call_terminate(ptr %20) #20
  unreachable

21:                                               ; preds = %16, %13, %10, %8, %_ZN8nanobind18gil_scoped_acquireC2Ev.exit.i
  %22 = landingpad { ptr, i32 }
          cleanup
  invoke void @PyGILState_Release(i32 noundef %2)
          to label %_ZN8nanobind18gil_scoped_acquireD2Ev.exit7.i unwind label %23

23:                                               ; preds = %21
  %24 = landingpad { ptr, i32 }
          catch ptr null
  %25 = extractvalue { ptr, i32 } %24, 0
  tail call void @__clang_call_terminate(ptr %25) #20
  unreachable

_ZN8nanobind18gil_scoped_acquireD2Ev.exit7.i:     ; preds = %21
  resume { ptr, i32 } %22

"_ZZN8nanobind6detailL27dlpack_from_buffer_protocolEP7_objectbENK3$_0clEPNS0_16managed_dltensorE.exit": ; preds = %17
  ret void
}